target datalayout = "e-m:e-p270:32:32-p271:32:32-p272:64:64-i64:64-i128:128-f80:128-n8:16:32:64-S128"
target triple = "x86_64-pc-linux-gnu"

@_ZTVSt9exception = available_externally unnamed_addr constant { [5 x ptr] } { [5 x ptr] [ptr null, ptr @_ZTISt9exception, ptr @_ZNSt9exceptionD1Ev, ptr @_ZNSt9exceptionD0Ev, ptr @_ZNKSt9exception4whatEv] }, align 8

; Function Attrs: mustprogress nounwind uwtable
define linkonce_odr hidden void @_ZNSt9exceptionC2Ev(ptr noundef nonnull align 8 dereferenceable(8) %0) unnamed_addr #3 comdat align 2 {
  %2 = alloca ptr, align 8
  store ptr %0, ptr %2, align 8, !tbaa !3
  %3 = load ptr, ptr %2, align 8
  store ptr getelementptr inbounds inrange(-16, 24) ({ [5 x ptr] }, ptr @_ZTVSt9exception, i32 0, i32 0, i32 2), ptr %3, align 8, !tbaa !9
  ret void
}

; Function Attrs: mustprogress nounwind uwtable
define void @_ZN5boost7archive21xml_archive_exceptionC1ERKS1_(ptr noundef nonnull align 8 dereferenceable(8) %0, ptr noundef nonnull align 8 dereferenceable(8) %1) unnamed_addr #3 align 2 {
  %3 = alloca ptr, align 8
  %4 = alloca ptr, align 8
  store ptr %0, ptr %3, align 8, !tbaa !3
  store ptr %1, ptr %4, align 8, !tbaa !3
  %5 = load ptr, ptr %3, align 8
  call void @_ZNSt9exceptionC2Ev(ptr noundef nonnull align 8 dereferenceable(8) %5) #7
  %6 = getelementptr inbounds i8, ptr %5, i64 8
  %7 = load ptr, ptr %4, align 8, !tbaa !3
  %8 = load ptr, ptr %7, align 8, !tbaa !9
  %9 = getelementptr i8, ptr %8, i64 -40
  %10 = load i64, ptr %9, align 8
  %11 = getelementptr inbounds i8, ptr %7, i64 %10
  call void @_ZN5boost7archive17archive_exceptionC2ERKS1_(ptr noundef nonnull align 8 dereferenceable(140) %6, ptr noundef getelementptr inbounds ([5 x ptr], ptr @_ZTTN5boost7archive21xml_archive_exceptionE, i64 0, i64 3), ptr noundef nonnull align 8 dereferenceable(140) %11) #7
  store ptr getelementptr inbounds inrange(-48, 24) ({ [9 x ptr], [8 x ptr] }, ptr @_ZTVN5boost7archive21xml_archive_exceptionE, i32 0, i32 0, i32 6), ptr %5, align 8, !tbaa !9
  %12 = getelementptr inbounds i8, ptr %5, i64 8
  store ptr getelementptr inbounds inrange(-40, 24) ({ [9 x ptr], [8 x ptr] }, ptr @_ZTVN5boost7archive21xml_archive_exceptionE, i32 0, i32 1, i32 5), ptr %12, align 8, !tbaa !9
  store ptr getelementptr inbounds inrange(-48, 24) ({ [9 x ptr], [8 x ptr] }, ptr @_ZTVN5boost7archive21xml_archive_exceptionE, i32 0, i32 0, i32 6), ptr %5, align 8, !tbaa !9
  ret void
}