; Function Attrs: mustprogress nounwind uwtable
define void @_ZN5boost7archive21xml_archive_exceptionC1ERKS1_(ptr noundef nonnull align 8 dereferenceable(8) %0, ptr noundef nonnull align 8 dereferenceable(8) %1) unnamed_addr #4 align 2 {
  store ptr getelementptr inbounds inrange(-16, 24) (i8, ptr @_ZTVSt9exception, i64 16), ptr %0, align 8, !tbaa !3
  %3 = getelementptr inbounds i8, ptr %0, i64 8
  %4 = load ptr, ptr %1, align 8, !tbaa !3
  %5 = getelementptr i8, ptr %4, i64 -40
  %6 = load i64, ptr %5, align 8
  %7 = getelementptr inbounds i8, ptr %1, i64 %6
  tail call void @_ZN5boost7archive17archive_exceptionC2ERKS1_(ptr noundef nonnull align 8 dereferenceable(140) %3, ptr noundef nonnull getelementptr inbounds (i8, ptr @_ZTTN5boost7archive21xml_archive_exceptionE, i64 24), ptr noundef nonnull align 8 dereferenceable(140) %7) #8
  store ptr getelementptr inbounds inrange(-40, 24) (i8, ptr @_ZTVN5boost7archive21xml_archive_exceptionE, i64 112), ptr %3, align 8, !tbaa !3
  store ptr getelementptr inbounds inrange(-48, 24) (i8, ptr @_ZTVN5boost7archive21xml_archive_exceptionE, i64 48), ptr %0, align 8, !tbaa !3
  ret void
}